target datalayout = "e-m:e-p270:32:32-p271:32:32-p272:64:64-i64:64-i128:128-f80:128-n8:16:32:64-S128"
target triple = "x86_64-pc-linux-gnu"

%struct.strbuf = type { i64, i64, ptr }
%struct.bundle_header = type { i32, %struct.string_list, %struct.string_list, ptr, %struct.list_objects_filter_options }
%struct.string_list = type { ptr, i64, i64, i8, ptr }
%struct.list_objects_filter_options = type { %struct.strbuf, i32, i8, ptr, i64, i64, i32, i64, i64, ptr }
%struct.string_list_item = type { ptr, ptr }

@.str.37 = private unnamed_addr constant [7 x i8] c"%s %s\0A\00", align 1

; Function Attrs: nounwind uwtable
define internal i32 @list_refs(ptr noundef %0, i32 noundef %1, ptr noundef %2) #0 {
  %4 = alloca ptr, align 8
  %5 = alloca i32, align 4
  %6 = alloca ptr, align 8
  %7 = alloca i32, align 4
  %8 = alloca ptr, align 8
  %9 = alloca ptr, align 8
  %10 = alloca i32, align 4
  %11 = alloca i32, align 4
  store ptr %0, ptr %4, align 8, !tbaa !38
  store i32 %1, ptr %5, align 4, !tbaa !9
  store ptr %2, ptr %6, align 8, !tbaa !87
  call void @llvm.lifetime.start.p0(i64 4, ptr %7) #9
  store i32 0, ptr %7, align 4, !tbaa !9
  br label %12

12:                                               ; preds = %81, %3
  %13 = load i32, ptr %7, align 4, !tbaa !9
  %14 = sext i32 %13 to i64
  %15 = load ptr, ptr %4, align 8, !tbaa !38
  %16 = getelementptr inbounds nuw %struct.string_list, ptr %15, i32 0, i32 1
  %17 = load i64, ptr %16, align 8, !tbaa !73
  %18 = icmp ult i64 %14, %17
  br i1 %18, label %19, label %84

19:                                               ; preds = %12
  call void @llvm.lifetime.start.p0(i64 8, ptr %8) #9
  call void @llvm.lifetime.start.p0(i64 8, ptr %9) #9
  %20 = load i32, ptr %5, align 4, !tbaa !9
  %21 = icmp sgt i32 %20, 1
  br i1 %21, label %22, label %57

22:                                               ; preds = %19
  call void @llvm.lifetime.start.p0(i64 4, ptr %10) #9
  store i32 1, ptr %10, align 4, !tbaa !9
  br label %23

23:                                               ; preds = %45, %22
  %24 = load i32, ptr %10, align 4, !tbaa !9
  %25 = load i32, ptr %5, align 4, !tbaa !9
  %26 = icmp slt i32 %24, %25
  br i1 %26, label %27, label %48

27:                                               ; preds = %23
  %28 = load ptr, ptr %4, align 8, !tbaa !38
  %29 = getelementptr inbounds nuw %struct.string_list, ptr %28, i32 0, i32 0
  %30 = load ptr, ptr %29, align 8, !tbaa !74
  %31 = load i32, ptr %7, align 4, !tbaa !9
  %32 = sext i32 %31 to i64
  %33 = getelementptr inbounds %struct.string_list_item, ptr %30, i64 %32
  %34 = getelementptr inbounds nuw %struct.string_list_item, ptr %33, i32 0, i32 0
  %35 = load ptr, ptr %34, align 8, !tbaa !76
  %36 = load ptr, ptr %6, align 8, !tbaa !87
  %37 = load i32, ptr %10, align 4, !tbaa !9
  %38 = sext i32 %37 to i64
  %39 = getelementptr inbounds ptr, ptr %36, i64 %38
  %40 = load ptr, ptr %39, align 8, !tbaa !11
  %41 = call i32 @strcmp(ptr noundef %35, ptr noundef %40) #10
  %42 = icmp ne i32 %41, 0
  br i1 %42, label %44, label %43

43:                                               ; preds = %27
  br label %48

44:                                               ; preds = %27
  br label %45

45:                                               ; preds = %44
  %46 = load i32, ptr %10, align 4, !tbaa !9
  %47 = add nsw i32 %46, 1
  store i32 %47, ptr %10, align 4, !tbaa !9
  br label %23, !llvm.loop !89

48:                                               ; preds = %43, %23
  %49 = load i32, ptr %10, align 4, !tbaa !9
  %50 = load i32, ptr %5, align 4, !tbaa !9
  %51 = icmp eq i32 %49, %50
  br i1 %51, label %52, label %53

52:                                               ; preds = %48
  store i32 4, ptr %11, align 4
  br label %54

53:                                               ; preds = %48
  store i32 0, ptr %11, align 4
  br label %54

54:                                               ; preds = %53, %52
  call void @llvm.lifetime.end.p0(i64 4, ptr %10) #9
  %55 = load i32, ptr %11, align 4
  switch i32 %55, label %78 [
    i32 0, label %56
  ]

56:                                               ; preds = %54
  br label %57

57:                                               ; preds = %56, %19
  %58 = load ptr, ptr %4, align 8, !tbaa !38
  %59 = getelementptr inbounds nuw %struct.string_list, ptr %58, i32 0, i32 0
  %60 = load ptr, ptr %59, align 8, !tbaa !74
  %61 = load i32, ptr %7, align 4, !tbaa !9
  %62 = sext i32 %61 to i64
  %63 = getelementptr inbounds %struct.string_list_item, ptr %60, i64 %62
  %64 = getelementptr inbounds nuw %struct.string_list_item, ptr %63, i32 0, i32 1
  %65 = load ptr, ptr %64, align 8, !tbaa !30
  store ptr %65, ptr %8, align 8, !tbaa !28
  %66 = load ptr, ptr %4, align 8, !tbaa !38
  %67 = getelementptr inbounds nuw %struct.string_list, ptr %66, i32 0, i32 0
  %68 = load ptr, ptr %67, align 8, !tbaa !74
  %69 = load i32, ptr %7, align 4, !tbaa !9
  %70 = sext i32 %69 to i64
  %71 = getelementptr inbounds %struct.string_list_item, ptr %68, i64 %70
  %72 = getelementptr inbounds nuw %struct.string_list_item, ptr %71, i32 0, i32 0
  %73 = load ptr, ptr %72, align 8, !tbaa !76
  store ptr %73, ptr %9, align 8, !tbaa !11
  %74 = load ptr, ptr %8, align 8, !tbaa !28
  %75 = call ptr @oid_to_hex(ptr noundef %74)
  %76 = load ptr, ptr %9, align 8, !tbaa !11
  %77 = call i32 (ptr, ...) @printf(ptr noundef @.str.37, ptr noundef %75, ptr noundef %76)
  store i32 0, ptr %11, align 4
  br label %78

78:                                               ; preds = %57, %54
  call void @llvm.lifetime.end.p0(i64 8, ptr %9) #9
  call void @llvm.lifetime.end.p0(i64 8, ptr %8) #9
  %79 = load i32, ptr %11, align 4
  switch i32 %79, label %85 [
    i32 0, label %80
    i32 4, label %81
  ]

80:                                               ; preds = %78
  br label %81

81:                                               ; preds = %80, %78
  %82 = load i32, ptr %7, align 4, !tbaa !9
  %83 = add nsw i32 %82, 1
  store i32 %83, ptr %7, align 4, !tbaa !9
  br label %12, !llvm.loop !90

84:                                               ; preds = %12
  store i32 1, ptr %11, align 4
  call void @llvm.lifetime.end.p0(i64 4, ptr %7) #9
  ret i32 0

85:                                               ; preds = %78
  unreachable
}

; Function Attrs: nounwind uwtable
define dso_local i32 @list_bundle_refs(ptr noundef %0, i32 noundef %1, ptr noundef %2) #0 {
  %4 = alloca ptr, align 8
  %5 = alloca i32, align 4
  %6 = alloca ptr, align 8
  store ptr %0, ptr %4, align 8, !tbaa !4
  store i32 %1, ptr %5, align 4, !tbaa !9
  store ptr %2, ptr %6, align 8, !tbaa !87
  %7 = load ptr, ptr %4, align 8, !tbaa !4
  %8 = getelementptr inbounds nuw %struct.bundle_header, ptr %7, i32 0, i32 2
  %9 = load i32, ptr %5, align 4, !tbaa !9
  %10 = load ptr, ptr %6, align 8, !tbaa !87
  %11 = call i32 @list_refs(ptr noundef %8, i32 noundef %9, ptr noundef %10)
  ret i32 %11
}