; Function Attrs: nounwind uwtable
define dso_local noundef i32 @list_bundle_refs(ptr noundef readonly captures(none) %0, i32 noundef %1, ptr noundef readonly captures(none) %2) local_unnamed_addr #3 {
  %4 = getelementptr inbounds nuw i8, ptr %0, i64 48
  %5 = getelementptr inbounds nuw i8, ptr %0, i64 56
  %6 = load i64, ptr %5, align 8, !tbaa !68
  %.not.i = icmp eq i64 %6, 0
  br i1 %.not.i, label %list_refs.exit, label %.lr.ph.i

.lr.ph.i:                                         ; preds = %3
  %7 = icmp sgt i32 %1, 1
  br i1 %7, label %.preheader.us.preheader.i, label %.lr.ph.split.i

.preheader.us.preheader.i:                        ; preds = %.lr.ph.i
  %wide.trip.count.i = zext nneg i32 %1 to i64
  br label %.preheader.us.i

.preheader.us.i:                                  ; preds = %.thread.i, %.preheader.us.preheader.i
  %8 = phi i64 [ %6, %.preheader.us.preheader.i ], [ %24, %.thread.i ]
  %indvars.iv31.i = phi i64 [ 0, %.preheader.us.preheader.i ], [ %indvars.iv.next32.i, %.thread.i ]
  %9 = load ptr, ptr %4, align 8, !tbaa !69
  %10 = getelementptr inbounds nuw %struct.string_list_item, ptr %9, i64 %indvars.iv31.i
  %11 = load ptr, ptr %10, align 8, !tbaa !70
  br label %12

12:                                               ; preds = %16, %.preheader.us.i
  %indvars.iv28.i = phi i64 [ 1, %.preheader.us.i ], [ %indvars.iv.next29.i, %16 ]
  %13 = getelementptr inbounds nuw ptr, ptr %2, i64 %indvars.iv28.i
  %14 = load ptr, ptr %13, align 8, !tbaa !28
  %15 = tail call i32 @strcmp(ptr noundef nonnull dereferenceable(1) %11, ptr noundef nonnull dereferenceable(1) %14) #16
  %.not.us.i = icmp eq i32 %15, 0
  br i1 %.not.us.i, label %17, label %16

16:                                               ; preds = %12
  %indvars.iv.next29.i = add nuw nsw i64 %indvars.iv28.i, 1
  %exitcond.not.i = icmp eq i64 %indvars.iv.next29.i, %wide.trip.count.i
  br i1 %exitcond.not.i, label %.thread.i, label %12, !llvm.loop !77

17:                                               ; preds = %12
  %18 = trunc nuw nsw i64 %indvars.iv28.i to i32
  %.not23.us.i = icmp eq i32 %1, %18
  br i1 %.not23.us.i, label %.thread.i, label %19

19:                                               ; preds = %17
  %20 = getelementptr inbounds nuw i8, ptr %10, i64 8
  %21 = load ptr, ptr %20, align 8, !tbaa !32
  %22 = tail call ptr @oid_to_hex(ptr noundef %21) #15
  %23 = tail call i32 (ptr, ...) @printf(ptr noundef nonnull dereferenceable(1) @.str.37, ptr noundef %22, ptr noundef nonnull %11)
  %.pre.i = load i64, ptr %5, align 8, !tbaa !68
  br label %.thread.i

.thread.i:                                        ; preds = %16, %19, %17
  %24 = phi i64 [ %.pre.i, %19 ], [ %8, %17 ], [ %8, %16 ]
  %indvars.iv.next32.i = add nuw nsw i64 %indvars.iv31.i, 1
  %25 = icmp ugt i64 %24, %indvars.iv.next32.i
  br i1 %25, label %.preheader.us.i, label %list_refs.exit, !llvm.loop !72

.lr.ph.split.i:                                   ; preds = %.lr.ph.i, %.lr.ph.split.i
  %indvars.iv.i = phi i64 [ %indvars.iv.next.i, %.lr.ph.split.i ], [ 0, %.lr.ph.i ]
  %26 = load ptr, ptr %4, align 8, !tbaa !69
  %27 = getelementptr inbounds nuw %struct.string_list_item, ptr %26, i64 %indvars.iv.i
  %28 = getelementptr inbounds nuw i8, ptr %27, i64 8
  %29 = load ptr, ptr %28, align 8, !tbaa !32
  %30 = load ptr, ptr %27, align 8, !tbaa !70
  %31 = tail call ptr @oid_to_hex(ptr noundef %29) #15
  %32 = tail call i32 (ptr, ...) @printf(ptr noundef nonnull dereferenceable(1) @.str.37, ptr noundef %31, ptr noundef %30)
  %indvars.iv.next.i = add nuw nsw i64 %indvars.iv.i, 1
  %33 = load i64, ptr %5, align 8, !tbaa !68
  %34 = icmp ugt i64 %33, %indvars.iv.next.i
  br i1 %34, label %.lr.ph.split.i, label %list_refs.exit, !llvm.loop !72

list_refs.exit:                                   ; preds = %.lr.ph.split.i, %.thread.i, %3
  ret i32 0
}